target datalayout = "e-m:e-p270:32:32-p271:32:32-p272:64:64-i64:64-i128:128-f80:128-n8:16:32:64-S128"
target triple = "x86_64-pc-linux-gnu"

%struct.KINMemRec = type { ptr, double, ptr, ptr, double, double, i32, i64, i64, i64, i64, i32, i32, i32, i32, i32, i32, i32, i32, double, double, double, double, double, double, double, double, double, i32, double, i64, i64, i64, i64, i64, i64, i64, ptr, ptr, ptr, ptr, ptr, ptr, ptr, ptr, ptr, ptr, ptr, i32, i32, double, ptr, ptr, ptr, ptr, ptr, double, ptr, ptr, ptr, ptr, i64, i64, i32, ptr, ptr, i32, ptr, ptr, i64, i64, i64, i64, ptr, ptr, ptr, ptr, i32, ptr, double, double, double, double, double, i32, double, double, double, i32 }
%struct.KINLsMemRec = type { i32, i32, i32, ptr, ptr, ptr, ptr, double, i64, i64, i64, i64, i64, i64, i64, i32, i32, ptr, ptr, ptr, ptr, i32, ptr, ptr, ptr }

@.str = private unnamed_addr constant [118 x i8] c"generated/home/dtcxzyw/WorkSpace/Projects/compilers/llvm-opt-benchmark/bench/sundials/sundials/src/kinsol/kinsol_ls.c\00", align 1
@.str.1 = private unnamed_addr constant [23 x i8] c"KINSOL memory is NULL.\00", align 1
@__func__.kinLsPSetup = private unnamed_addr constant [12 x i8] c"kinLsPSetup\00", align 1
@.str.26 = private unnamed_addr constant [30 x i8] c"Linear solver memory is NULL.\00", align 1

; Function Attrs: nounwind uwtable
define i32 @kinLs_AccessLMem(ptr noundef %0, ptr noundef %1, ptr noundef %2, ptr noundef %3) #0 {
  %5 = alloca i32, align 4
  %6 = alloca ptr, align 8
  %7 = alloca ptr, align 8
  %8 = alloca ptr, align 8
  %9 = alloca ptr, align 8
  store ptr %0, ptr %6, align 8, !tbaa !3
  store ptr %1, ptr %7, align 8, !tbaa !105
  store ptr %2, ptr %8, align 8, !tbaa !107
  store ptr %3, ptr %9, align 8, !tbaa !109
  %10 = load ptr, ptr %6, align 8, !tbaa !3
  %11 = icmp eq ptr %10, null
  br i1 %11, label %12, label %14

12:                                               ; preds = %4
  %13 = load ptr, ptr %7, align 8, !tbaa !105
  call void (ptr, i32, i32, ptr, ptr, ptr, ...) @KINProcessError(ptr noundef null, i32 noundef -1, i32 noundef 1399, ptr noundef %13, ptr noundef @.str, ptr noundef @.str.1)
  store i32 -1, ptr %5, align 4
  br label %32

14:                                               ; preds = %4
  %15 = load ptr, ptr %6, align 8, !tbaa !3
  %16 = load ptr, ptr %8, align 8, !tbaa !107
  store ptr %15, ptr %16, align 8, !tbaa !11
  %17 = load ptr, ptr %8, align 8, !tbaa !107
  %18 = load ptr, ptr %17, align 8, !tbaa !11
  %19 = getelementptr inbounds nuw %struct.KINMemRec, ptr %18, i32 0, i32 78
  %20 = load ptr, ptr %19, align 8, !tbaa !66
  %21 = icmp eq ptr %20, null
  br i1 %21, label %22, label %26

22:                                               ; preds = %14
  %23 = load ptr, ptr %8, align 8, !tbaa !107
  %24 = load ptr, ptr %23, align 8, !tbaa !11
  %25 = load ptr, ptr %7, align 8, !tbaa !105
  call void (ptr, i32, i32, ptr, ptr, ptr, ...) @KINProcessError(ptr noundef %24, i32 noundef -2, i32 noundef 1406, ptr noundef %25, ptr noundef @.str, ptr noundef @.str.26)
  store i32 -2, ptr %5, align 4
  br label %32

26:                                               ; preds = %14
  %27 = load ptr, ptr %8, align 8, !tbaa !107
  %28 = load ptr, ptr %27, align 8, !tbaa !11
  %29 = getelementptr inbounds nuw %struct.KINMemRec, ptr %28, i32 0, i32 78
  %30 = load ptr, ptr %29, align 8, !tbaa !66
  %31 = load ptr, ptr %9, align 8, !tbaa !109
  store ptr %30, ptr %31, align 8, !tbaa !45
  store i32 0, ptr %5, align 4
  br label %32

32:                                               ; preds = %26, %22, %12
  %33 = load i32, ptr %5, align 4
  ret i32 %33
}

; Function Attrs: nounwind uwtable
define i32 @kinLsPSetup(ptr noundef %0) #0 {
  %2 = alloca i32, align 4
  %3 = alloca ptr, align 8
  %4 = alloca ptr, align 8
  %5 = alloca ptr, align 8
  %6 = alloca i32, align 4
  %7 = alloca i32, align 4
  store ptr %0, ptr %3, align 8, !tbaa !3
  call void @llvm.lifetime.start.p0(i64 8, ptr %4) #7
  call void @llvm.lifetime.start.p0(i64 8, ptr %5) #7
  call void @llvm.lifetime.start.p0(i64 4, ptr %6) #7
  %8 = load ptr, ptr %3, align 8, !tbaa !3
  %9 = call i32 @kinLs_AccessLMem(ptr noundef %8, ptr noundef @__func__.kinLsPSetup, ptr noundef %4, ptr noundef %5)
  store i32 %9, ptr %6, align 4, !tbaa !20
  %10 = load i32, ptr %6, align 4, !tbaa !20
  %11 = icmp ne i32 %10, 0
  br i1 %11, label %12, label %14

12:                                               ; preds = %1
  %13 = load i32, ptr %6, align 4, !tbaa !20
  store i32 %13, ptr %2, align 4
  store i32 1, ptr %7, align 4
  br label %39

14:                                               ; preds = %1
  %15 = load ptr, ptr %5, align 8, !tbaa !45
  %16 = getelementptr inbounds nuw %struct.KINLsMemRec, ptr %15, i32 0, i32 17
  %17 = load ptr, ptr %16, align 8, !tbaa !57
  %18 = load ptr, ptr %4, align 8, !tbaa !11
  %19 = getelementptr inbounds nuw %struct.KINMemRec, ptr %18, i32 0, i32 37
  %20 = load ptr, ptr %19, align 8, !tbaa !80
  %21 = load ptr, ptr %4, align 8, !tbaa !11
  %22 = getelementptr inbounds nuw %struct.KINMemRec, ptr %21, i32 0, i32 41
  %23 = load ptr, ptr %22, align 8, !tbaa !99
  %24 = load ptr, ptr %4, align 8, !tbaa !11
  %25 = getelementptr inbounds nuw %struct.KINMemRec, ptr %24, i32 0, i32 39
  %26 = load ptr, ptr %25, align 8, !tbaa !81
  %27 = load ptr, ptr %4, align 8, !tbaa !11
  %28 = getelementptr inbounds nuw %struct.KINMemRec, ptr %27, i32 0, i32 42
  %29 = load ptr, ptr %28, align 8, !tbaa !77
  %30 = load ptr, ptr %5, align 8, !tbaa !45
  %31 = getelementptr inbounds nuw %struct.KINLsMemRec, ptr %30, i32 0, i32 20
  %32 = load ptr, ptr %31, align 8, !tbaa !61
  %33 = call i32 %17(ptr noundef %20, ptr noundef %23, ptr noundef %26, ptr noundef %29, ptr noundef %32)
  store i32 %33, ptr %6, align 4, !tbaa !20
  %34 = load ptr, ptr %5, align 8, !tbaa !45
  %35 = getelementptr inbounds nuw %struct.KINLsMemRec, ptr %34, i32 0, i32 10
  %36 = load i64, ptr %35, align 8, !tbaa !102
  %37 = add nsw i64 %36, 1
  store i64 %37, ptr %35, align 8, !tbaa !102
  %38 = load i32, ptr %6, align 4, !tbaa !20
  store i32 %38, ptr %2, align 4
  store i32 1, ptr %7, align 4
  br label %39

39:                                               ; preds = %14, %12
  call void @llvm.lifetime.end.p0(i64 4, ptr %6) #7
  call void @llvm.lifetime.end.p0(i64 8, ptr %5) #7
  call void @llvm.lifetime.end.p0(i64 8, ptr %4) #7
  %40 = load i32, ptr %2, align 4
  ret i32 %40
}