; Function Attrs: nounwind uwtable
define i32 @kinLsPSetup(ptr noundef %0) #0 {
  %2 = icmp eq ptr %0, null
  br i1 %2, label %3, label %4

3:                                                ; preds = %1
  tail call void (ptr, i32, i32, ptr, ptr, ptr, ...) @KINProcessError(ptr noundef null, i32 noundef -1, i32 noundef 1399, ptr noundef nonnull @__func__.kinLsPSetup, ptr noundef nonnull @.str, ptr noundef nonnull @.str.1) #13
  br label %kinLs_AccessLMem.exit.thread

4:                                                ; preds = %1
  %5 = getelementptr inbounds nuw i8, ptr %0, i64 584
  %6 = load ptr, ptr %5, align 8, !tbaa !55
  %7 = icmp eq ptr %6, null
  br i1 %7, label %8, label %kinLs_AccessLMem.exit

8:                                                ; preds = %4
  tail call void (ptr, i32, i32, ptr, ptr, ptr, ...) @KINProcessError(ptr noundef nonnull %0, i32 noundef -2, i32 noundef 1406, ptr noundef nonnull @__func__.kinLsPSetup, ptr noundef nonnull @.str, ptr noundef nonnull @.str.26) #13
  br label %kinLs_AccessLMem.exit.thread

kinLs_AccessLMem.exit:                            ; preds = %4
  %9 = getelementptr inbounds nuw i8, ptr %6, i64 120
  %10 = load ptr, ptr %9, align 8, !tbaa !67
  %11 = getelementptr inbounds nuw i8, ptr %0, i64 264
  %12 = load ptr, ptr %11, align 8, !tbaa !72
  %13 = getelementptr inbounds nuw i8, ptr %0, i64 296
  %14 = load ptr, ptr %13, align 8, !tbaa !88
  %15 = getelementptr inbounds nuw i8, ptr %0, i64 280
  %16 = load ptr, ptr %15, align 8, !tbaa !73
  %17 = getelementptr inbounds nuw i8, ptr %0, i64 304
  %18 = load ptr, ptr %17, align 8, !tbaa !68
  %19 = getelementptr inbounds nuw i8, ptr %6, i64 144
  %20 = load ptr, ptr %19, align 8, !tbaa !50
  %21 = tail call i32 %10(ptr noundef %12, ptr noundef %14, ptr noundef %16, ptr noundef %18, ptr noundef %20) #13
  %22 = getelementptr inbounds nuw i8, ptr %6, i64 72
  %23 = load i64, ptr %22, align 8, !tbaa !96
  %24 = add nsw i64 %23, 1
  store i64 %24, ptr %22, align 8, !tbaa !96
  br label %kinLs_AccessLMem.exit.thread

kinLs_AccessLMem.exit.thread:                     ; preds = %8, %3, %kinLs_AccessLMem.exit
  %.0 = phi i32 [ %21, %kinLs_AccessLMem.exit ], [ -2, %8 ], [ -1, %3 ]
  ret i32 %.0
}